target datalayout = "e-m:e-p270:32:32-p271:32:32-p272:64:64-i64:64-i128:128-f80:128-n8:16:32:64-S128"
target triple = "x86_64-pc-linux-gnu"

%struct.mbedtls_sha256_context = type { [64 x i8], [2 x i32], [8 x i32], i32 }

; Function Attrs: nounwind uwtable
define hidden void @mbedtls_sha256_free(ptr noundef %0) #0 {
  %2 = alloca ptr, align 8
  store ptr %0, ptr %2, align 8, !tbaa !3
  %3 = load ptr, ptr %2, align 8, !tbaa !3
  %4 = icmp eq ptr %3, null
  br i1 %4, label %5, label %6

5:                                                ; preds = %1
  br label %8

6:                                                ; preds = %1
  %7 = load ptr, ptr %2, align 8, !tbaa !3
  call void @mbedtls_platform_zeroize(ptr noundef %7, i64 noundef 108)
  br label %8

8:                                                ; preds = %6, %5
  ret void
}

; Function Attrs: alwaysinline nounwind uwtable
define internal void @mbedtls_put_unaligned_uint32(ptr noundef %0, i32 noundef %1) #5 {
  %3 = alloca ptr, align 8
  %4 = alloca i32, align 4
  store ptr %0, ptr %3, align 8, !tbaa !25
  store i32 %1, ptr %4, align 4, !tbaa !10
  %5 = load ptr, ptr %3, align 8, !tbaa !25
  call void @llvm.memcpy.p0.p0.i64(ptr align 1 %5, ptr align 4 %4, i64 4, i1 false)
  ret void
}

; Function Attrs: nounwind uwtable
define hidden i32 @mbedtls_sha256_finish(ptr noundef %0, ptr noundef %1) #0 {
  %3 = alloca ptr, align 8
  %4 = alloca ptr, align 8
  %5 = alloca i32, align 4
  %6 = alloca i32, align 4
  %7 = alloca i32, align 4
  %8 = alloca i32, align 4
  %9 = alloca i32, align 4
  store ptr %0, ptr %3, align 8, !tbaa !3
  store ptr %1, ptr %4, align 8, !tbaa !14
  call void @llvm.lifetime.start.p0(i64 4, ptr %5) #10
  store i32 -110, ptr %5, align 4, !tbaa !10
  call void @llvm.lifetime.start.p0(i64 4, ptr %6) #10
  call void @llvm.lifetime.start.p0(i64 4, ptr %7) #10
  call void @llvm.lifetime.start.p0(i64 4, ptr %8) #10
  call void @llvm.lifetime.start.p0(i64 4, ptr %9) #10
  store i32 0, ptr %9, align 4, !tbaa !10
  %10 = load ptr, ptr %3, align 8, !tbaa !3
  %11 = getelementptr inbounds nuw %struct.mbedtls_sha256_context, ptr %10, i32 0, i32 1
  %12 = getelementptr inbounds [2 x i32], ptr %11, i64 0, i64 0
  %13 = load i32, ptr %12, align 4, !tbaa !10
  %14 = and i32 %13, 63
  store i32 %14, ptr %6, align 4, !tbaa !10
  %15 = load ptr, ptr %3, align 8, !tbaa !3
  %16 = getelementptr inbounds nuw %struct.mbedtls_sha256_context, ptr %15, i32 0, i32 0
  %17 = load i32, ptr %6, align 4, !tbaa !10
  %18 = add i32 %17, 1
  store i32 %18, ptr %6, align 4, !tbaa !10
  %19 = zext i32 %17 to i64
  %20 = getelementptr inbounds nuw [64 x i8], ptr %16, i64 0, i64 %19
  store i8 -128, ptr %20, align 1, !tbaa !9
  %21 = load i32, ptr %6, align 4, !tbaa !10
  %22 = icmp ule i32 %21, 56
  br i1 %22, label %23, label %33

23:                                               ; preds = %2
  %24 = load ptr, ptr %3, align 8, !tbaa !3
  %25 = getelementptr inbounds nuw %struct.mbedtls_sha256_context, ptr %24, i32 0, i32 0
  %26 = getelementptr inbounds [64 x i8], ptr %25, i64 0, i64 0
  %27 = load i32, ptr %6, align 4, !tbaa !10
  %28 = zext i32 %27 to i64
  %29 = getelementptr inbounds nuw i8, ptr %26, i64 %28
  %30 = load i32, ptr %6, align 4, !tbaa !10
  %31 = sub i32 56, %30
  %32 = zext i32 %31 to i64
  call void @llvm.memset.p0.i64(ptr align 1 %29, i8 0, i64 %32, i1 false)
  br label %54

33:                                               ; preds = %2
  %34 = load ptr, ptr %3, align 8, !tbaa !3
  %35 = getelementptr inbounds nuw %struct.mbedtls_sha256_context, ptr %34, i32 0, i32 0
  %36 = getelementptr inbounds [64 x i8], ptr %35, i64 0, i64 0
  %37 = load i32, ptr %6, align 4, !tbaa !10
  %38 = zext i32 %37 to i64
  %39 = getelementptr inbounds nuw i8, ptr %36, i64 %38
  %40 = load i32, ptr %6, align 4, !tbaa !10
  %41 = sub i32 64, %40
  %42 = zext i32 %41 to i64
  call void @llvm.memset.p0.i64(ptr align 1 %39, i8 0, i64 %42, i1 false)
  %43 = load ptr, ptr %3, align 8, !tbaa !3
  %44 = load ptr, ptr %3, align 8, !tbaa !3
  %45 = getelementptr inbounds nuw %struct.mbedtls_sha256_context, ptr %44, i32 0, i32 0
  %46 = getelementptr inbounds [64 x i8], ptr %45, i64 0, i64 0
  %47 = call i32 @mbedtls_internal_sha256_process(ptr noundef %43, ptr noundef %46)
  store i32 %47, ptr %5, align 4, !tbaa !10
  %48 = icmp ne i32 %47, 0
  br i1 %48, label %49, label %50

49:                                               ; preds = %33
  br label %154

50:                                               ; preds = %33
  %51 = load ptr, ptr %3, align 8, !tbaa !3
  %52 = getelementptr inbounds nuw %struct.mbedtls_sha256_context, ptr %51, i32 0, i32 0
  %53 = getelementptr inbounds [64 x i8], ptr %52, i64 0, i64 0
  call void @llvm.memset.p0.i64(ptr align 4 %53, i8 0, i64 56, i1 false)
  br label %54

54:                                               ; preds = %50, %23
  %55 = load ptr, ptr %3, align 8, !tbaa !3
  %56 = getelementptr inbounds nuw %struct.mbedtls_sha256_context, ptr %55, i32 0, i32 1
  %57 = getelementptr inbounds [2 x i32], ptr %56, i64 0, i64 0
  %58 = load i32, ptr %57, align 4, !tbaa !10
  %59 = lshr i32 %58, 29
  %60 = load ptr, ptr %3, align 8, !tbaa !3
  %61 = getelementptr inbounds nuw %struct.mbedtls_sha256_context, ptr %60, i32 0, i32 1
  %62 = getelementptr inbounds [2 x i32], ptr %61, i64 0, i64 1
  %63 = load i32, ptr %62, align 4, !tbaa !10
  %64 = shl i32 %63, 3
  %65 = or i32 %59, %64
  store i32 %65, ptr %7, align 4, !tbaa !10
  %66 = load ptr, ptr %3, align 8, !tbaa !3
  %67 = getelementptr inbounds nuw %struct.mbedtls_sha256_context, ptr %66, i32 0, i32 1
  %68 = getelementptr inbounds [2 x i32], ptr %67, i64 0, i64 0
  %69 = load i32, ptr %68, align 4, !tbaa !10
  %70 = shl i32 %69, 3
  store i32 %70, ptr %8, align 4, !tbaa !10
  %71 = load ptr, ptr %3, align 8, !tbaa !3
  %72 = getelementptr inbounds nuw %struct.mbedtls_sha256_context, ptr %71, i32 0, i32 0
  %73 = getelementptr inbounds [64 x i8], ptr %72, i64 0, i64 0
  %74 = getelementptr inbounds i8, ptr %73, i64 56
  %75 = load i32, ptr %7, align 4, !tbaa !10
  %76 = call i32 @llvm.bswap.i32(i32 %75)
  call void @mbedtls_put_unaligned_uint32(ptr noundef %74, i32 noundef %76)
  %77 = load ptr, ptr %3, align 8, !tbaa !3
  %78 = getelementptr inbounds nuw %struct.mbedtls_sha256_context, ptr %77, i32 0, i32 0
  %79 = getelementptr inbounds [64 x i8], ptr %78, i64 0, i64 0
  %80 = getelementptr inbounds i8, ptr %79, i64 60
  %81 = load i32, ptr %8, align 4, !tbaa !10
  %82 = call i32 @llvm.bswap.i32(i32 %81)
  call void @mbedtls_put_unaligned_uint32(ptr noundef %80, i32 noundef %82)
  %83 = load ptr, ptr %3, align 8, !tbaa !3
  %84 = load ptr, ptr %3, align 8, !tbaa !3
  %85 = getelementptr inbounds nuw %struct.mbedtls_sha256_context, ptr %84, i32 0, i32 0
  %86 = getelementptr inbounds [64 x i8], ptr %85, i64 0, i64 0
  %87 = call i32 @mbedtls_internal_sha256_process(ptr noundef %83, ptr noundef %86)
  store i32 %87, ptr %5, align 4, !tbaa !10
  %88 = icmp ne i32 %87, 0
  br i1 %88, label %89, label %90

89:                                               ; preds = %54
  br label %154

90:                                               ; preds = %54
  %91 = load ptr, ptr %4, align 8, !tbaa !14
  %92 = getelementptr inbounds i8, ptr %91, i64 0
  %93 = load ptr, ptr %3, align 8, !tbaa !3
  %94 = getelementptr inbounds nuw %struct.mbedtls_sha256_context, ptr %93, i32 0, i32 2
  %95 = getelementptr inbounds [8 x i32], ptr %94, i64 0, i64 0
  %96 = load i32, ptr %95, align 4, !tbaa !10
  %97 = call i32 @llvm.bswap.i32(i32 %96)
  call void @mbedtls_put_unaligned_uint32(ptr noundef %92, i32 noundef %97)
  %98 = load ptr, ptr %4, align 8, !tbaa !14
  %99 = getelementptr inbounds i8, ptr %98, i64 4
  %100 = load ptr, ptr %3, align 8, !tbaa !3
  %101 = getelementptr inbounds nuw %struct.mbedtls_sha256_context, ptr %100, i32 0, i32 2
  %102 = getelementptr inbounds [8 x i32], ptr %101, i64 0, i64 1
  %103 = load i32, ptr %102, align 4, !tbaa !10
  %104 = call i32 @llvm.bswap.i32(i32 %103)
  call void @mbedtls_put_unaligned_uint32(ptr noundef %99, i32 noundef %104)
  %105 = load ptr, ptr %4, align 8, !tbaa !14
  %106 = getelementptr inbounds i8, ptr %105, i64 8
  %107 = load ptr, ptr %3, align 8, !tbaa !3
  %108 = getelementptr inbounds nuw %struct.mbedtls_sha256_context, ptr %107, i32 0, i32 2
  %109 = getelementptr inbounds [8 x i32], ptr %108, i64 0, i64 2
  %110 = load i32, ptr %109, align 4, !tbaa !10
  %111 = call i32 @llvm.bswap.i32(i32 %110)
  call void @mbedtls_put_unaligned_uint32(ptr noundef %106, i32 noundef %111)
  %112 = load ptr, ptr %4, align 8, !tbaa !14
  %113 = getelementptr inbounds i8, ptr %112, i64 12
  %114 = load ptr, ptr %3, align 8, !tbaa !3
  %115 = getelementptr inbounds nuw %struct.mbedtls_sha256_context, ptr %114, i32 0, i32 2
  %116 = getelementptr inbounds [8 x i32], ptr %115, i64 0, i64 3
  %117 = load i32, ptr %116, align 4, !tbaa !10
  %118 = call i32 @llvm.bswap.i32(i32 %117)
  call void @mbedtls_put_unaligned_uint32(ptr noundef %113, i32 noundef %118)
  %119 = load ptr, ptr %4, align 8, !tbaa !14
  %120 = getelementptr inbounds i8, ptr %119, i64 16
  %121 = load ptr, ptr %3, align 8, !tbaa !3
  %122 = getelementptr inbounds nuw %struct.mbedtls_sha256_context, ptr %121, i32 0, i32 2
  %123 = getelementptr inbounds [8 x i32], ptr %122, i64 0, i64 4
  %124 = load i32, ptr %123, align 4, !tbaa !10
  %125 = call i32 @llvm.bswap.i32(i32 %124)
  call void @mbedtls_put_unaligned_uint32(ptr noundef %120, i32 noundef %125)
  %126 = load ptr, ptr %4, align 8, !tbaa !14
  %127 = getelementptr inbounds i8, ptr %126, i64 20
  %128 = load ptr, ptr %3, align 8, !tbaa !3
  %129 = getelementptr inbounds nuw %struct.mbedtls_sha256_context, ptr %128, i32 0, i32 2
  %130 = getelementptr inbounds [8 x i32], ptr %129, i64 0, i64 5
  %131 = load i32, ptr %130, align 4, !tbaa !10
  %132 = call i32 @llvm.bswap.i32(i32 %131)
  call void @mbedtls_put_unaligned_uint32(ptr noundef %127, i32 noundef %132)
  %133 = load ptr, ptr %4, align 8, !tbaa !14
  %134 = getelementptr inbounds i8, ptr %133, i64 24
  %135 = load ptr, ptr %3, align 8, !tbaa !3
  %136 = getelementptr inbounds nuw %struct.mbedtls_sha256_context, ptr %135, i32 0, i32 2
  %137 = getelementptr inbounds [8 x i32], ptr %136, i64 0, i64 6
  %138 = load i32, ptr %137, align 4, !tbaa !10
  %139 = call i32 @llvm.bswap.i32(i32 %138)
  call void @mbedtls_put_unaligned_uint32(ptr noundef %134, i32 noundef %139)
  %140 = load ptr, ptr %3, align 8, !tbaa !3
  %141 = getelementptr inbounds nuw %struct.mbedtls_sha256_context, ptr %140, i32 0, i32 3
  %142 = load i32, ptr %141, align 4, !tbaa !12
  store i32 %142, ptr %9, align 4, !tbaa !10
  %143 = load i32, ptr %9, align 4, !tbaa !10
  %144 = icmp ne i32 %143, 0
  br i1 %144, label %153, label %145

145:                                              ; preds = %90
  %146 = load ptr, ptr %4, align 8, !tbaa !14
  %147 = getelementptr inbounds i8, ptr %146, i64 28
  %148 = load ptr, ptr %3, align 8, !tbaa !3
  %149 = getelementptr inbounds nuw %struct.mbedtls_sha256_context, ptr %148, i32 0, i32 2
  %150 = getelementptr inbounds [8 x i32], ptr %149, i64 0, i64 7
  %151 = load i32, ptr %150, align 4, !tbaa !10
  %152 = call i32 @llvm.bswap.i32(i32 %151)
  call void @mbedtls_put_unaligned_uint32(ptr noundef %147, i32 noundef %152)
  br label %153

153:                                              ; preds = %145, %90
  store i32 0, ptr %5, align 4, !tbaa !10
  br label %154

154:                                              ; preds = %153, %89, %49
  %155 = load ptr, ptr %3, align 8, !tbaa !3
  call void @mbedtls_sha256_free(ptr noundef %155)
  %156 = load i32, ptr %5, align 4, !tbaa !10
  call void @llvm.lifetime.end.p0(i64 4, ptr %9) #10
  call void @llvm.lifetime.end.p0(i64 4, ptr %8) #10
  call void @llvm.lifetime.end.p0(i64 4, ptr %7) #10
  call void @llvm.lifetime.end.p0(i64 4, ptr %6) #10
  call void @llvm.lifetime.end.p0(i64 4, ptr %5) #10
  ret i32 %156
}