; Function Attrs: nounwind uwtable
define hidden noundef i32 @mbedtls_sha256_finish(ptr noundef %0, ptr noundef writeonly captures(none) initializes((0, 28)) %1) local_unnamed_addr #2 {
  %3 = getelementptr inbounds nuw i8, ptr %0, i64 64
  %4 = load i32, ptr %3, align 4, !tbaa !7
  %5 = and i32 %4, 63
  %6 = zext nneg i32 %5 to i64
  %7 = getelementptr inbounds nuw [64 x i8], ptr %0, i64 0, i64 %6
  store i8 -128, ptr %7, align 1, !tbaa !4
  %8 = icmp samesign ult i32 %5, 56
  %9 = zext nneg i32 %5 to i64
  %10 = getelementptr inbounds nuw i8, ptr %0, i64 %9
  %11 = getelementptr inbounds nuw i8, ptr %10, i64 1
  br i1 %8, label %12, label %15

12:                                               ; preds = %2
  %13 = sub nuw nsw i32 55, %5
  %14 = zext nneg i32 %13 to i64
  tail call void @llvm.memset.p0.i64(ptr nonnull align 1 %11, i8 0, i64 %14, i1 false)
  br label %19

15:                                               ; preds = %2
  %16 = xor i32 %5, 63
  %17 = zext nneg i32 %16 to i64
  tail call void @llvm.memset.p0.i64(ptr nonnull align 1 %11, i8 0, i64 %17, i1 false)
  %18 = tail call i32 @mbedtls_internal_sha256_process(ptr noundef nonnull %0, ptr noundef nonnull %0)
  tail call void @llvm.memset.p0.i64(ptr noundef nonnull align 4 dereferenceable(56) %0, i8 0, i64 56, i1 false)
  br label %19

19:                                               ; preds = %15, %12
  %20 = load i32, ptr %3, align 4, !tbaa !7
  %21 = getelementptr inbounds nuw i8, ptr %0, i64 68
  %22 = load i32, ptr %21, align 4, !tbaa !7
  %23 = tail call i32 @llvm.fshl.i32(i32 %22, i32 %20, i32 3)
  %24 = shl i32 %20, 3
  %25 = getelementptr inbounds nuw i8, ptr %0, i64 56
  %26 = tail call i32 @llvm.bswap.i32(i32 %23)
  store i32 %26, ptr %25, align 1
  %27 = getelementptr inbounds nuw i8, ptr %0, i64 60
  %28 = tail call i32 @llvm.bswap.i32(i32 %24)
  store i32 %28, ptr %27, align 1
  %29 = tail call i32 @mbedtls_internal_sha256_process(ptr noundef nonnull %0, ptr noundef nonnull %0)
  %30 = getelementptr inbounds nuw i8, ptr %0, i64 72
  %31 = load i32, ptr %30, align 4, !tbaa !7
  %32 = tail call i32 @llvm.bswap.i32(i32 %31)
  store i32 %32, ptr %1, align 1
  %33 = getelementptr inbounds nuw i8, ptr %1, i64 4
  %34 = getelementptr inbounds nuw i8, ptr %0, i64 76
  %35 = load i32, ptr %34, align 4, !tbaa !7
  %36 = tail call i32 @llvm.bswap.i32(i32 %35)
  store i32 %36, ptr %33, align 1
  %37 = getelementptr inbounds nuw i8, ptr %1, i64 8
  %38 = getelementptr inbounds nuw i8, ptr %0, i64 80
  %39 = load i32, ptr %38, align 4, !tbaa !7
  %40 = tail call i32 @llvm.bswap.i32(i32 %39)
  store i32 %40, ptr %37, align 1
  %41 = getelementptr inbounds nuw i8, ptr %1, i64 12
  %42 = getelementptr inbounds nuw i8, ptr %0, i64 84
  %43 = load i32, ptr %42, align 4, !tbaa !7
  %44 = tail call i32 @llvm.bswap.i32(i32 %43)
  store i32 %44, ptr %41, align 1
  %45 = getelementptr inbounds nuw i8, ptr %1, i64 16
  %46 = getelementptr inbounds nuw i8, ptr %0, i64 88
  %47 = load i32, ptr %46, align 4, !tbaa !7
  %48 = tail call i32 @llvm.bswap.i32(i32 %47)
  store i32 %48, ptr %45, align 1
  %49 = getelementptr inbounds nuw i8, ptr %1, i64 20
  %50 = getelementptr inbounds nuw i8, ptr %0, i64 92
  %51 = load i32, ptr %50, align 4, !tbaa !7
  %52 = tail call i32 @llvm.bswap.i32(i32 %51)
  store i32 %52, ptr %49, align 1
  %53 = getelementptr inbounds nuw i8, ptr %1, i64 24
  %54 = getelementptr inbounds nuw i8, ptr %0, i64 96
  %55 = load i32, ptr %54, align 4, !tbaa !7
  %56 = tail call i32 @llvm.bswap.i32(i32 %55)
  store i32 %56, ptr %53, align 1
  %57 = getelementptr inbounds nuw i8, ptr %0, i64 104
  %58 = load i32, ptr %57, align 4, !tbaa !9
  %.not = icmp eq i32 %58, 0
  br i1 %.not, label %59, label %mbedtls_sha256_free.exit

59:                                               ; preds = %19
  %60 = getelementptr inbounds nuw i8, ptr %1, i64 28
  %61 = getelementptr inbounds nuw i8, ptr %0, i64 100
  %62 = load i32, ptr %61, align 4, !tbaa !7
  %63 = tail call i32 @llvm.bswap.i32(i32 %62)
  store i32 %63, ptr %60, align 1
  br label %mbedtls_sha256_free.exit

mbedtls_sha256_free.exit:                         ; preds = %19, %59
  tail call void @mbedtls_platform_zeroize(ptr noundef nonnull %0, i64 noundef 108) #14
  ret i32 0
}